; Function Attrs: mustprogress uwtable
define hidden void @_ZN3smt5setup14setup_QF_UFLIAER15static_features(ptr nocapture noundef nonnull readonly align 8 dereferenceable(33) %this, ptr nocapture noundef nonnull readonly align 8 dereferenceable(792) %st) local_unnamed_addr #4 align 2 personality ptr @__gxx_personality_v0 {
entry:
  %ref.tmp = alloca %"class.std::__cxx11::basic_string", align 8
  %ref.tmp2 = alloca %"class.std::allocator.310", align 1
  %m_has_real = getelementptr inbounds i8, ptr %st, i64 518
  %0 = load i8, ptr %m_has_real, align 2
  %1 = and i8 %0, 1
  %tobool.not = icmp eq i8 %1, 0
  br i1 %tobool.not, label %if.end, label %if.then

if.then:                                          ; preds = %entry
  %exception = tail call ptr @__cxa_allocate_exception(i64 40) #15
  call void @_ZNSaIcEC1Ev(ptr noundef nonnull align 1 dereferenceable(1) %ref.tmp2) #15
  invoke void @_ZNSt7__cxx1112basic_stringIcSt11char_traitsIcESaIcEEC2IS3_EEPKcRKS3_(ptr noundef nonnull align 8 dereferenceable(32) %ref.tmp, ptr noundef nonnull @.str.46, ptr noundef nonnull align 1 dereferenceable(1) %ref.tmp2)
          to label %invoke.cont unwind label %cleanup.action

invoke.cont:                                      ; preds = %if.then
  store ptr getelementptr inbounds ({ [6 x ptr] }, ptr @_ZTV17default_exception, i64 0, i32 0, i64 2), ptr %exception, align 8
  %m_msg.i = getelementptr inbounds i8, ptr %exception, i64 8
  call void @_ZNSt7__cxx1112basic_stringIcSt11char_traitsIcESaIcEEC1EOS4_(ptr noundef nonnull align 8 dereferenceable(32) %m_msg.i, ptr noundef nonnull align 8 dereferenceable(32) %ref.tmp) #15
  invoke void @__cxa_throw(ptr nonnull %exception, ptr nonnull @_ZTI17default_exception, ptr nonnull @_ZN17default_exceptionD2Ev) #17
          to label %unreachable unwind label %ehcleanup

ehcleanup:                                        ; preds = %invoke.cont
  %2 = landingpad { ptr, i32 }
          cleanup
  call void @_ZNSt7__cxx1112basic_stringIcSt11char_traitsIcESaIcEED1Ev(ptr noundef nonnull align 8 dereferenceable(32) %ref.tmp) #15
  call void @_ZNSaIcED1Ev(ptr noundef nonnull align 1 dereferenceable(1) %ref.tmp2) #15
  br label %eh.resume

cleanup.action:                                   ; preds = %if.then
  %3 = landingpad { ptr, i32 }
          cleanup
  call void @_ZNSaIcED1Ev(ptr noundef nonnull align 1 dereferenceable(1) %ref.tmp2) #15
  call void @__cxa_free_exception(ptr %exception) #15
  br label %eh.resume

if.end:                                           ; preds = %entry
  %m_params.i.i = getelementptr inbounds i8, ptr %this, i64 16
  %4 = load ptr, ptr %m_params.i.i, align 8
  %m_arith_mode.i.i = getelementptr inbounds i8, ptr %4, i64 252
  %5 = load i32, ptr %m_arith_mode.i.i, align 4
  %cmp.i.i = icmp eq i32 %5, 2
  %6 = load ptr, ptr %this, align 8
  br i1 %cmp.i.i, label %if.then.i.i, label %if.else.i.i

if.then.i.i:                                      ; preds = %if.end
  %call.i.i = tail call noalias noundef ptr @_ZN6memory8allocateEm(i64 noundef 1640)
  %7 = load ptr, ptr %this, align 8
  tail call void @_ZN3smt12theory_arithINS_6mi_extEEC1ERNS_7contextE(ptr noundef nonnull align 8 dereferenceable(1640) %call.i.i, ptr noundef nonnull align 8 dereferenceable(11616) %7)
  br label %_ZN3smt5setup14setup_QF_UFLIAEv.exit

if.else.i.i:                                      ; preds = %if.end
  %call4.i.i = tail call noalias noundef ptr @_ZN6memory8allocateEm(i64 noundef 72)
  %8 = load ptr, ptr %this, align 8
  tail call void @_ZN3smt10theory_lraC1ERNS_7contextE(ptr noundef nonnull align 8 dereferenceable(72) %call4.i.i, ptr noundef nonnull align 8 dereferenceable(11616) %8)
  br label %_ZN3smt5setup14setup_QF_UFLIAEv.exit

_ZN3smt5setup14setup_QF_UFLIAEv.exit:             ; preds = %if.then.i.i, %if.else.i.i
  %call4.sink.i.i = phi ptr [ %call4.i.i, %if.else.i.i ], [ %call.i.i, %if.then.i.i ]
  tail call void @_ZN3smt7context15register_pluginEPNS_6theoryE(ptr noundef nonnull align 8 dereferenceable(11616) %6, ptr noundef nonnull %call4.sink.i.i)
  %9 = load ptr, ptr %m_params.i.i, align 8
  tail call void @_ZN10smt_params14setup_QF_UFLIAEv(ptr noundef nonnull align 8 dereferenceable(800) %9)
  %m_has_bv = getelementptr inbounds i8, ptr %st, i64 519
  %10 = load i8, ptr %m_has_bv, align 1
  %11 = and i8 %10, 1
  %tobool6.not = icmp eq i8 %11, 0
  br i1 %tobool6.not, label %if.end8, label %if.then7

if.then7:                                         ; preds = %_ZN3smt5setup14setup_QF_UFLIAEv.exit
  %12 = load ptr, ptr %m_params.i.i, align 8
  tail call void @_ZN10smt_params11setup_QF_BVEv(ptr noundef nonnull align 8 dereferenceable(800) %12)
  %13 = load ptr, ptr %this, align 8
  %call.i = tail call noalias noundef ptr @_ZN6memory8allocateEm(i64 noundef 1048)
  %14 = load ptr, ptr %this, align 8
  tail call void @_ZN3smt9theory_bvC1ERNS_7contextE(ptr noundef nonnull align 8 dereferenceable(1048) %call.i, ptr noundef nonnull align 8 dereferenceable(11616) %14)
  tail call void @_ZN3smt7context15register_pluginEPNS_6theoryE(ptr noundef nonnull align 8 dereferenceable(11616) %13, ptr noundef nonnull %call.i)
  br label %if.end8

if.end8:                                          ; preds = %if.then7, %_ZN3smt5setup14setup_QF_UFLIAEv.exit
  ret void

eh.resume:                                        ; preds = %ehcleanup, %cleanup.action
  %.pn5 = phi { ptr, i32 } [ %2, %ehcleanup ], [ %3, %cleanup.action ]
  resume { ptr, i32 } %.pn5

unreachable:                                      ; preds = %invoke.cont
  unreachable
}